; Function Attrs: mustprogress nofree norecurse nosync nounwind willreturn memory(argmem: read) uwtable
define internal range(i32 -1073741824, 1073741824) i32 @distX(ptr noundef readonly captures(none) %0, ptr noundef readonly captures(none) %1) #4 {
  %3 = getelementptr inbounds nuw i8, ptr %0, i64 8
  %4 = load i32, ptr %3, align 4, !tbaa !69
  %5 = load i32, ptr %0, align 4, !tbaa !68
  %6 = getelementptr inbounds nuw i8, ptr %1, i64 8
  %7 = load i32, ptr %6, align 4, !tbaa !69
  %8 = load i32, ptr %1, align 4, !tbaa !68
  %9 = add i32 %4, %7
  %10 = add i32 %5, %8
  %11 = sub i32 %9, %10
  %12 = sdiv i32 %11, 2
  ret i32 %12
}